Certificate:
    Data:
        Version: 3 (0x2)
        Serial Number: 3 (0x3)
        Signature Algorithm: sha256WithRSAEncryption
        Issuer: CN=ca.tc2007b.tec.mx, ST=NL, C=MX/emailAddress=juan.jose.gaytan@tec.mx, O=Tec de Monterrey, OU=TC2007B
        Validity
            Not Before: Sep  8 14:10:42 2022 GMT
            Not After : Sep  8 14:10:42 2023 GMT
        Subject: CN=equipo02.tc2007b.tec.mx, ST=NL, C=MX/emailAddress=a00830265@tec.mx, O=TC2007B, OU=Equipo 2
        Subject Public Key Info:
            Public Key Algorithm: rsaEncryption
                RSA Public-Key: (2048 bit)
                Modulus:
                    00:aa:4b:00:c2:c8:f3:89:47:f2:7b:f2:20:b1:48:
                    f2:87:21:38:55:22:b4:f4:c5:2a:51:79:1b:11:4c:
                    48:7d:96:3e:0c:01:df:c1:12:39:b4:17:e6:c2:37:
                    ef:55:61:c4:51:00:79:e1:44:d1:6f:df:97:df:17:
                    da:6d:ae:b7:17:3b:56:d2:ec:60:f5:63:55:cd:fc:
                    14:8f:2b:1b:c9:59:3b:76:96:7c:6b:46:71:90:8a:
                    3a:47:1e:7c:b1:26:d2:48:fa:ba:f5:b3:94:24:d4:
                    30:f3:47:45:79:6d:27:21:10:0f:63:00:46:4c:44:
                    dc:a9:17:02:0a:5b:ed:6a:60:53:ac:e0:b9:5f:f9:
                    de:d3:25:84:3f:f4:58:5c:17:4a:74:76:3d:f0:9d:
                    c9:73:9f:e1:b6:50:e9:9d:86:2a:9c:dd:19:1f:ec:
                    30:a5:9f:be:40:70:3a:3d:26:32:68:09:75:96:43:
                    e1:d6:f9:83:5d:8b:8e:9e:28:a7:d9:eb:5b:d8:f4:
                    7e:54:0a:bd:1e:34:06:68:6c:24:20:26:5c:f0:78:
                    d0:e8:d4:60:e5:fd:f7:84:ab:bd:72:45:2f:39:18:
                    0b:e6:ed:df:c0:b0:18:c6:b6:9c:8b:09:29:cd:ad:
                    65:92:04:16:56:54:21:d6:57:0d:49:8d:02:a3:eb:
                    0c:7d
                Exponent: 65537 (0x10001)
        X509v3 extensions:
            X509v3 Basic Constraints: 
                CA:FALSE
            X509v3 Key Usage: 
                Digital Signature, Non Repudiation, Key Encipherment
            X509v3 Subject Alternative Name: 
                DNS:equipo02.tc2007b.tec.mx
            X509v3 Extended Key Usage: 
                TLS Web Server Authentication, TLS Web Client Authentication
    Signature Algorithm: sha256WithRSAEncryption
         26:95:f7:bf:09:6b:d6:b4:27:4a:e1:18:74:22:92:ee:3b:79:
         f1:36:fc:dc:87:55:dd:d8:11:f9:60:66:f2:6d:c8:76:74:08:
         76:27:4e:a7:c6:64:5f:3b:24:e4:fe:6d:12:9e:b4:5b:57:70:
         ad:d2:c5:c9:e7:bf:d5:72:64:52:dc:18:a9:21:79:f7:ef:7a:
         18:17:3c:56:90:fb:2f:ea:2e:9e:1c:dd:23:d9:da:1d:d1:2b:
         96:30:98:e6:d7:ab:e4:00:30:ca:ba:b0:8f:69:ea:7e:e3:56:
         a8:06:1b:2f:f6:8e:91:d1:f2:19:63:95:5c:42:da:58:48:40:
         fe:82:bb:5c:6d:00:5f:3b:29:d3:c4:f6:43:c2:f1:27:db:28:
         a6:2b:f1:ab:91:5d:49:fa:0c:07:22:2f:3b:23:37:ef:ff:70:
         41:2a:2e:e1:7c:51:aa:b8:86:8b:ee:7a:33:90:2f:4b:00:93:
         9e:cd:74:aa:66:79:7b:bf:8c:c0:73:0d:f3:7f:b1:a8:99:d4:
         ce:18:68:f5:98:24:ce:31:5e:eb:c7:3d:a9:46:5d:a1:17:5a:
         fd:25:67:05:82:a3:7d:32:1a:b9:35:64:89:bf:8c:2f:22:51:
         34:40:24:99:0f:b6:7c:d4:fd:aa:97:59:0f:24:79:3c:6e:73:
         d0:7e:2a:be:fe:6d:d9:96:bd:4f:b2:32:f9:22:ce:66:6f:01:
         2d:3d:39:a6:3a:b8:f0:f3:4f:cc:03:42:f1:e3:53:ca:9f:41:
         9b:55:b3:2b:f3:bd:59:a9:4b:da:6c:df:14:eb:80:6c:cb:34:
         76:c8:c4:c1:70:60:35:d4:0a:08:72:a9:75:a7:a0:b8:7b:7d:
         39:b8:e1:dd:a8:00:48:f4:87:91:e1:14:65:08:d7:8f:af:73:
         47:c9:a4:c0:65:a4:37:fa:76:a9:4f:f1:be:ac:b6:09:ea:e1:
         de:1f:b1:00:91:51:2f:e8:89:06:81:e0:8b:71:d1:52:8e:af:
         bf:5d:de:ec:75:63:c5:49:4d:cd:2f:28:7f:79:fd:68:b7:20:
         f3:3f:47:b1:40:55:a0:84:22:70:c3:51:05:0d:0b:25:99:2e:
         d5:be:5a:4c:95:9c:89:30:6e:38:b2:9b:b3:a4:2a:5d:4f:69:
         82:0b:5e:92:97:d8:10:4b:f5:80:cc:f2:5b:08:40:9d:6d:59:
         50:7c:48:e9:d7:39:1d:05:99:aa:81:13:ca:f2:ae:02:bf:eb:
         9d:53:be:b3:c4:f7:84:7f:02:cc:7a:c2:b8:3c:0c:cd:0d:bc:
         7d:c8:73:a2:04:35:30:c7:59:0e:42:33:64:cb:37:da:cc:db:
         70:33:af:07:a3:6c:ba:52
-----BEGIN CERTIFICATE-----
MIIE5zCCAs+gAwIBAgIBAzANBgkqhkiG9w0BAQsFADCBizEaMBgGA1UEAwwRY2Eu
dGMyMDA3Yi50ZWMubXgxCzAJBgNVBAgMAk5MMQswCQYDVQQGEwJNWDEmMCQGCSqG
SIb3DQEJARYXanVhbi5qb3NlLmdheXRhbkB0ZWMubXgxGTAXBgNVBAoMEFRlYyBk
ZSBNb250ZXJyZXkxEDAOBgNVBAsMB1RDMjAwN0IwHhcNMjIwOTA4MTQxMDQyWhcN
MjMwOTA4MTQxMDQyWjCBgjEgMB4GA1UEAwwXZXF1aXBvMDIudGMyMDA3Yi50ZWMu
bXgxCzAJBgNVBAgMAk5MMQswCQYDVQQGEwJNWDEfMB0GCSqGSIb3DQEJARYQYTAw
ODMwMjY1QHRlYy5teDEQMA4GA1UECgwHVEMyMDA3QjERMA8GA1UECwwIRXF1aXBv
IDIwggEiMA0GCSqGSIb3DQEBAQUAA4IBDwAwggEKAoIBAQCqSwDCyPOJR/J78iCx
SPKHIThVIrT0xSpReRsRTEh9lj4MAd/BEjm0F+bCN+9VYcRRAHnhRNFv35ffF9pt
rrcXO1bS7GD1Y1XN/BSPKxvJWTt2lnxrRnGQijpHHnyxJtJI+rr1s5Qk1DDzR0V5
bSchEA9jAEZMRNypFwIKW+1qYFOs4Llf+d7TJYQ/9FhcF0p0dj3wnclzn+G2UOmd
hiqc3Rkf7DCln75AcDo9JjJoCXWWQ+HW+YNdi46eKKfZ61vY9H5UCr0eNAZobCQg
JlzweNDo1GDl/feEq71yRS85GAvm7d/AsBjGtpyLCSnNrWWSBBZWVCHWVw1JjQKj
6wx9AgMBAAGjXTBbMAkGA1UdEwQCMAAwCwYDVR0PBAQDAgXgMCIGA1UdEQQbMBmC
F2VxdWlwbzAyLnRjMjAwN2IudGVjLm14MB0GA1UdJQQWMBQGCCsGAQUFBwMBBggr
BgEFBQcDAjANBgkqhkiG9w0BAQsFAAOCAgEAJpX3vwlr1rQnSuEYdCKS7jt58Tb8
3IdV3dgR+WBm8m3IdnQIdidOp8ZkXzsk5P5tEp60W1dwrdLFyee/1XJkUtwYqSF5
9+96GBc8VpD7L+ounhzdI9naHdErljCY5ter5AAwyrqwj2nqfuNWqAYbL/aOkdHy
GWOVXELaWEhA/oK7XG0AXzsp08T2Q8LxJ9sopivxq5FdSfoMByIvOyM37/9wQSou
4XxRqriGi+56M5AvSwCTns10qmZ5e7+MwHMN83+xqJnUzhho9ZgkzjFe68c9qUZd
oRda/SVnBYKjfTIauTVkib+MLyJRNEAkmQ+2fNT9qpdZDyR5PG5z0H4qvv5t2Za9
T7Iy+SLOZm8BLT05pjq48PNPzANC8eNTyp9Bm1WzK/O9WalL2mzfFOuAbMs0dsjE
wXBgNdQKCHKpdaeguHt9Objh3agASPSHkeEUZQjXj69zR8mkwGWkN/p2qU/xvqy2
Cerh3h+xAJFRL+iJBoHgi3HRUo6vv13e7HVjxUlNzS8of3n9aLcg8z9HsUBVoIQi
cMNRBQ0LJZku1b5aTJWciTBuOLKbs6QqXU9pggtekpfYEEv1gMzyWwhAnW1ZUHxI
6dc5HQWZqoETyvKuAr/rnVO+s8T3hH8CzHrCuDwMzQ28fchzogQ1MMdZDkIzZMs3
2szbcDOvB6NsulI=
-----END CERTIFICATE-----
